; Function Attrs: mustprogress null_pointer_is_valid sspstrong uwtable
define void @_ZN23CaptureCommentTabWidget8closeTabEi(ptr noundef align 8 dereferenceable_or_null(40) %0, i32 noundef %1) #0 align 2 {
  %3 = tail call noundef ptr @_ZNK10QTabWidget6widgetEi(ptr noundef align 8 dereferenceable_or_null(40) %0, i32 noundef %1)
  %4 = tail call noundef ptr @_ZNK11QMetaObject4castEPK7QObject(ptr noundef nonnull align 8 dereferenceable_or_null(56) @_ZN14QPlainTextEdit16staticMetaObjectE, ptr noundef %3)
  %.not = icmp eq ptr %4, null
  br i1 %.not, label %9, label %5

5:                                                ; preds = %2
  tail call void @_ZN10QTabWidget9removeTabEi(ptr noundef align 8 dereferenceable_or_null(40) %0, i32 noundef %1)
  %6 = load ptr, ptr %4, align 8
  %7 = getelementptr inbounds nuw i8, ptr %6, i64 32
  %8 = load ptr, ptr %7, align 8
  tail call void %8(ptr noundef nonnull align 8 dereferenceable_or_null(40) %4) #15
  br label %9

9:                                                ; preds = %5, %2
  ret void
}